; Function Attrs: nounwind uwtable
define internal void @__cxx_global_array_dtor.234(ptr nocapture readnone %0) #7 section ".text.startup" {
  br label %2

2:                                                ; preds = %2, %1
  %3 = phi ptr [ getelementptr inbounds ([7 x %"struct.i18n::phonenumbers::(anonymous namespace)::NumberTest"], ptr @_ZN4i18n12phonenumbersL20kStrictGroupingCasesE, i64 1, i64 0), %1 ], [ %4, %2 ]
  %4 = getelementptr inbounds i8, ptr %3, i64 -64
  %5 = getelementptr inbounds i8, ptr %3, i64 -32
  tail call void @_ZNSt7__cxx1112basic_stringIcSt11char_traitsIcESaIcEED1Ev(ptr noundef nonnull align 8 dereferenceable(32) %5) #16
  tail call void @_ZNSt7__cxx1112basic_stringIcSt11char_traitsIcESaIcEED1Ev(ptr noundef nonnull align 8 dereferenceable(32) %4) #16
  %6 = icmp eq ptr %4, @_ZN4i18n12phonenumbersL20kStrictGroupingCasesE
  br i1 %6, label %7, label %2

7:                                                ; preds = %2
  ret void
}